target datalayout = "e-m:e-p270:32:32-p271:32:32-p272:64:64-i64:64-i128:128-f80:128-n8:16:32:64-S128"
target triple = "x86_64-pc-linux-gnu"

%struct.Query = type { i32, i32, i32, i64, i8, ptr, i32, i8, i8, i8, i8, i8, i8, i8, i8, i8, i8, i8, ptr, ptr, ptr, ptr, ptr, i32, ptr, ptr, i32, ptr, ptr, ptr, ptr, ptr, i8, ptr, ptr, ptr, ptr, ptr, ptr, ptr, i32, ptr, ptr, ptr, ptr, i32, i32 }

@.str.1 = private unnamed_addr constant [10 x i8] c"analyze.c\00", align 1
@.str.20 = private unnamed_addr constant [46 x i8] c"%s is not allowed with UNION/INTERSECT/EXCEPT\00", align 1
@__func__.CheckSelectLocking = private unnamed_addr constant [19 x i8] c"CheckSelectLocking\00", align 1
@.str.21 = private unnamed_addr constant [39 x i8] c"%s is not allowed with DISTINCT clause\00", align 1
@.str.22 = private unnamed_addr constant [39 x i8] c"%s is not allowed with GROUP BY clause\00", align 1
@.str.23 = private unnamed_addr constant [37 x i8] c"%s is not allowed with HAVING clause\00", align 1
@.str.24 = private unnamed_addr constant [43 x i8] c"%s is not allowed with aggregate functions\00", align 1
@.str.25 = private unnamed_addr constant [40 x i8] c"%s is not allowed with window functions\00", align 1
@.str.26 = private unnamed_addr constant [66 x i8] c"%s is not allowed with set-returning functions in the target list\00", align 1

; Function Attrs: nounwind uwtable
define dso_local void @CheckSelectLocking(ptr noundef %0, i32 noundef %1) #0 {
  %3 = alloca ptr, align 8
  %4 = alloca i32, align 4
  store ptr %0, ptr %3, align 8
  store i32 %1, ptr %4, align 4
  %5 = load ptr, ptr %3, align 8
  %6 = getelementptr inbounds nuw %struct.Query, ptr %5, i32 0, i32 42
  %7 = load ptr, ptr %6, align 8
  %8 = icmp ne ptr %7, null
  br i1 %8, label %9, label %22

9:                                                ; preds = %2
  br label %10

10:                                               ; preds = %9
  br i1 true, label %11, label %13

11:                                               ; preds = %10
  %12 = call zeroext i1 @errstart_cold(i32 noundef 21, ptr noundef null) #9
  br i1 %12, label %15, label %20

13:                                               ; preds = %10
  %14 = call zeroext i1 @errstart(i32 noundef 21, ptr noundef null)
  br i1 %14, label %15, label %20

15:                                               ; preds = %13, %11
  %16 = call i32 @errcode(i32 noundef 1088)
  %17 = load i32, ptr %4, align 4
  %18 = call ptr @LCS_asString(i32 noundef %17)
  %19 = call i32 (ptr, ...) @errmsg(ptr noundef @.str.20, ptr noundef %18)
  call void @errfinish(ptr noundef @.str.1, i32 noundef 3442, ptr noundef @__func__.CheckSelectLocking)
  br label %20

20:                                               ; preds = %15, %13, %11
  unreachable

21:                                               ; No predecessors!
  br label %22

22:                                               ; preds = %21, %2
  %23 = load ptr, ptr %3, align 8
  %24 = getelementptr inbounds nuw %struct.Query, ptr %23, i32 0, i32 36
  %25 = load ptr, ptr %24, align 8
  %26 = icmp ne ptr %25, null
  br i1 %26, label %27, label %40

27:                                               ; preds = %22
  br label %28

28:                                               ; preds = %27
  br i1 true, label %29, label %31

29:                                               ; preds = %28
  %30 = call zeroext i1 @errstart_cold(i32 noundef 21, ptr noundef null) #9
  br i1 %30, label %33, label %38

31:                                               ; preds = %28
  %32 = call zeroext i1 @errstart(i32 noundef 21, ptr noundef null)
  br i1 %32, label %33, label %38

33:                                               ; preds = %31, %29
  %34 = call i32 @errcode(i32 noundef 1088)
  %35 = load i32, ptr %4, align 4
  %36 = call ptr @LCS_asString(i32 noundef %35)
  %37 = call i32 (ptr, ...) @errmsg(ptr noundef @.str.21, ptr noundef %36)
  call void @errfinish(ptr noundef @.str.1, i32 noundef 3449, ptr noundef @__func__.CheckSelectLocking)
  br label %38

38:                                               ; preds = %33, %31, %29
  unreachable

39:                                               ; No predecessors!
  br label %40

40:                                               ; preds = %39, %22
  %41 = load ptr, ptr %3, align 8
  %42 = getelementptr inbounds nuw %struct.Query, ptr %41, i32 0, i32 31
  %43 = load ptr, ptr %42, align 8
  %44 = icmp ne ptr %43, null
  br i1 %44, label %50, label %45

45:                                               ; preds = %40
  %46 = load ptr, ptr %3, align 8
  %47 = getelementptr inbounds nuw %struct.Query, ptr %46, i32 0, i32 33
  %48 = load ptr, ptr %47, align 8
  %49 = icmp ne ptr %48, null
  br i1 %49, label %50, label %63

50:                                               ; preds = %45, %40
  br label %51

51:                                               ; preds = %50
  br i1 true, label %52, label %54

52:                                               ; preds = %51
  %53 = call zeroext i1 @errstart_cold(i32 noundef 21, ptr noundef null) #9
  br i1 %53, label %56, label %61

54:                                               ; preds = %51
  %55 = call zeroext i1 @errstart(i32 noundef 21, ptr noundef null)
  br i1 %55, label %56, label %61

56:                                               ; preds = %54, %52
  %57 = call i32 @errcode(i32 noundef 1088)
  %58 = load i32, ptr %4, align 4
  %59 = call ptr @LCS_asString(i32 noundef %58)
  %60 = call i32 (ptr, ...) @errmsg(ptr noundef @.str.22, ptr noundef %59)
  call void @errfinish(ptr noundef @.str.1, i32 noundef 3456, ptr noundef @__func__.CheckSelectLocking)
  br label %61

61:                                               ; preds = %56, %54, %52
  unreachable

62:                                               ; No predecessors!
  br label %63

63:                                               ; preds = %62, %45
  %64 = load ptr, ptr %3, align 8
  %65 = getelementptr inbounds nuw %struct.Query, ptr %64, i32 0, i32 34
  %66 = load ptr, ptr %65, align 8
  %67 = icmp ne ptr %66, null
  br i1 %67, label %68, label %81

68:                                               ; preds = %63
  br label %69

69:                                               ; preds = %68
  br i1 true, label %70, label %72

70:                                               ; preds = %69
  %71 = call zeroext i1 @errstart_cold(i32 noundef 21, ptr noundef null) #9
  br i1 %71, label %74, label %79

72:                                               ; preds = %69
  %73 = call zeroext i1 @errstart(i32 noundef 21, ptr noundef null)
  br i1 %73, label %74, label %79

74:                                               ; preds = %72, %70
  %75 = call i32 @errcode(i32 noundef 1088)
  %76 = load i32, ptr %4, align 4
  %77 = call ptr @LCS_asString(i32 noundef %76)
  %78 = call i32 (ptr, ...) @errmsg(ptr noundef @.str.23, ptr noundef %77)
  call void @errfinish(ptr noundef @.str.1, i32 noundef 3463, ptr noundef @__func__.CheckSelectLocking)
  br label %79

79:                                               ; preds = %74, %72, %70
  unreachable

80:                                               ; No predecessors!
  br label %81

81:                                               ; preds = %80, %63
  %82 = load ptr, ptr %3, align 8
  %83 = getelementptr inbounds nuw %struct.Query, ptr %82, i32 0, i32 7
  %84 = load i8, ptr %83, align 4, !range !4, !noundef !5
  %85 = trunc i8 %84 to i1
  br i1 %85, label %86, label %99

86:                                               ; preds = %81
  br label %87

87:                                               ; preds = %86
  br i1 true, label %88, label %90

88:                                               ; preds = %87
  %89 = call zeroext i1 @errstart_cold(i32 noundef 21, ptr noundef null) #9
  br i1 %89, label %92, label %97

90:                                               ; preds = %87
  %91 = call zeroext i1 @errstart(i32 noundef 21, ptr noundef null)
  br i1 %91, label %92, label %97

92:                                               ; preds = %90, %88
  %93 = call i32 @errcode(i32 noundef 1088)
  %94 = load i32, ptr %4, align 4
  %95 = call ptr @LCS_asString(i32 noundef %94)
  %96 = call i32 (ptr, ...) @errmsg(ptr noundef @.str.24, ptr noundef %95)
  call void @errfinish(ptr noundef @.str.1, i32 noundef 3470, ptr noundef @__func__.CheckSelectLocking)
  br label %97

97:                                               ; preds = %92, %90, %88
  unreachable

98:                                               ; No predecessors!
  br label %99

99:                                               ; preds = %98, %81
  %100 = load ptr, ptr %3, align 8
  %101 = getelementptr inbounds nuw %struct.Query, ptr %100, i32 0, i32 8
  %102 = load i8, ptr %101, align 1, !range !4, !noundef !5
  %103 = trunc i8 %102 to i1
  br i1 %103, label %104, label %117

104:                                              ; preds = %99
  br label %105

105:                                              ; preds = %104
  br i1 true, label %106, label %108

106:                                              ; preds = %105
  %107 = call zeroext i1 @errstart_cold(i32 noundef 21, ptr noundef null) #9
  br i1 %107, label %110, label %115

108:                                              ; preds = %105
  %109 = call zeroext i1 @errstart(i32 noundef 21, ptr noundef null)
  br i1 %109, label %110, label %115

110:                                              ; preds = %108, %106
  %111 = call i32 @errcode(i32 noundef 1088)
  %112 = load i32, ptr %4, align 4
  %113 = call ptr @LCS_asString(i32 noundef %112)
  %114 = call i32 (ptr, ...) @errmsg(ptr noundef @.str.25, ptr noundef %113)
  call void @errfinish(ptr noundef @.str.1, i32 noundef 3477, ptr noundef @__func__.CheckSelectLocking)
  br label %115

115:                                              ; preds = %110, %108, %106
  unreachable

116:                                              ; No predecessors!
  br label %117

117:                                              ; preds = %116, %99
  %118 = load ptr, ptr %3, align 8
  %119 = getelementptr inbounds nuw %struct.Query, ptr %118, i32 0, i32 9
  %120 = load i8, ptr %119, align 2, !range !4, !noundef !5
  %121 = trunc i8 %120 to i1
  br i1 %121, label %122, label %135

122:                                              ; preds = %117
  br label %123

123:                                              ; preds = %122
  br i1 true, label %124, label %126

124:                                              ; preds = %123
  %125 = call zeroext i1 @errstart_cold(i32 noundef 21, ptr noundef null) #9
  br i1 %125, label %128, label %133

126:                                              ; preds = %123
  %127 = call zeroext i1 @errstart(i32 noundef 21, ptr noundef null)
  br i1 %127, label %128, label %133

128:                                              ; preds = %126, %124
  %129 = call i32 @errcode(i32 noundef 1088)
  %130 = load i32, ptr %4, align 4
  %131 = call ptr @LCS_asString(i32 noundef %130)
  %132 = call i32 (ptr, ...) @errmsg(ptr noundef @.str.26, ptr noundef %131)
  call void @errfinish(ptr noundef @.str.1, i32 noundef 3484, ptr noundef @__func__.CheckSelectLocking)
  br label %133

133:                                              ; preds = %128, %126, %124
  unreachable

134:                                              ; No predecessors!
  br label %135

135:                                              ; preds = %134, %117
  ret void
}