; Function Attrs: nounwind uwtable
define dso_local void @CheckSelectLocking(ptr noundef readonly captures(none) %0, i32 noundef %1) local_unnamed_addr #0 {
  %3 = getelementptr inbounds nuw i8, ptr %0, i64 248
  %4 = load ptr, ptr %3, align 8
  %.not = icmp eq ptr %4, null
  br i1 %.not, label %10, label %5

5:                                                ; preds = %2
  %6 = tail call zeroext i1 @errstart_cold(i32 noundef 21, ptr noundef null) #12
  tail call void @llvm.assume(i1 %6)
  %7 = tail call i32 @errcode(i32 noundef 1088) #11
  %8 = tail call ptr @LCS_asString(i32 noundef %1)
  %9 = tail call i32 (ptr, ...) @errmsg(ptr noundef nonnull @.str.20, ptr noundef nonnull %8) #11
  tail call void @errfinish(ptr noundef nonnull @.str.1, i32 noundef 3442, ptr noundef nonnull @__func__.CheckSelectLocking) #11
  unreachable

10:                                               ; preds = %2
  %11 = getelementptr inbounds nuw i8, ptr %0, i64 200
  %12 = load ptr, ptr %11, align 8
  %.not14 = icmp eq ptr %12, null
  br i1 %.not14, label %18, label %13

13:                                               ; preds = %10
  %14 = tail call zeroext i1 @errstart_cold(i32 noundef 21, ptr noundef null) #12
  tail call void @llvm.assume(i1 %14)
  %15 = tail call i32 @errcode(i32 noundef 1088) #11
  %16 = tail call ptr @LCS_asString(i32 noundef %1)
  %17 = tail call i32 (ptr, ...) @errmsg(ptr noundef nonnull @.str.21, ptr noundef nonnull %16) #11
  tail call void @errfinish(ptr noundef nonnull @.str.1, i32 noundef 3449, ptr noundef nonnull @__func__.CheckSelectLocking) #11
  unreachable

18:                                               ; preds = %10
  %19 = getelementptr inbounds nuw i8, ptr %0, i64 160
  %20 = load ptr, ptr %19, align 8
  %.not15 = icmp eq ptr %20, null
  br i1 %.not15, label %21, label %24

21:                                               ; preds = %18
  %22 = getelementptr inbounds nuw i8, ptr %0, i64 176
  %23 = load ptr, ptr %22, align 8
  %.not16 = icmp eq ptr %23, null
  br i1 %.not16, label %29, label %24

24:                                               ; preds = %21, %18
  %25 = tail call zeroext i1 @errstart_cold(i32 noundef 21, ptr noundef null) #12
  tail call void @llvm.assume(i1 %25)
  %26 = tail call i32 @errcode(i32 noundef 1088) #11
  %27 = tail call ptr @LCS_asString(i32 noundef %1)
  %28 = tail call i32 (ptr, ...) @errmsg(ptr noundef nonnull @.str.22, ptr noundef nonnull %27) #11
  tail call void @errfinish(ptr noundef nonnull @.str.1, i32 noundef 3456, ptr noundef nonnull @__func__.CheckSelectLocking) #11
  unreachable

29:                                               ; preds = %21
  %30 = getelementptr inbounds nuw i8, ptr %0, i64 184
  %31 = load ptr, ptr %30, align 8
  %.not17 = icmp eq ptr %31, null
  br i1 %.not17, label %37, label %32

32:                                               ; preds = %29
  %33 = tail call zeroext i1 @errstart_cold(i32 noundef 21, ptr noundef null) #12
  tail call void @llvm.assume(i1 %33)
  %34 = tail call i32 @errcode(i32 noundef 1088) #11
  %35 = tail call ptr @LCS_asString(i32 noundef %1)
  %36 = tail call i32 (ptr, ...) @errmsg(ptr noundef nonnull @.str.23, ptr noundef nonnull %35) #11
  tail call void @errfinish(ptr noundef nonnull @.str.1, i32 noundef 3463, ptr noundef nonnull @__func__.CheckSelectLocking) #11
  unreachable

37:                                               ; preds = %29
  %38 = getelementptr inbounds nuw i8, ptr %0, i64 44
  %39 = load i8, ptr %38, align 4, !range !5, !noundef !4
  %40 = trunc nuw i8 %39 to i1
  br i1 %40, label %41, label %46

41:                                               ; preds = %37
  %42 = tail call zeroext i1 @errstart_cold(i32 noundef 21, ptr noundef null) #12
  tail call void @llvm.assume(i1 %42)
  %43 = tail call i32 @errcode(i32 noundef 1088) #11
  %44 = tail call ptr @LCS_asString(i32 noundef %1)
  %45 = tail call i32 (ptr, ...) @errmsg(ptr noundef nonnull @.str.24, ptr noundef nonnull %44) #11
  tail call void @errfinish(ptr noundef nonnull @.str.1, i32 noundef 3470, ptr noundef nonnull @__func__.CheckSelectLocking) #11
  unreachable

46:                                               ; preds = %37
  %47 = getelementptr inbounds nuw i8, ptr %0, i64 45
  %48 = load i8, ptr %47, align 1, !range !5, !noundef !4
  %49 = trunc nuw i8 %48 to i1
  br i1 %49, label %50, label %55

50:                                               ; preds = %46
  %51 = tail call zeroext i1 @errstart_cold(i32 noundef 21, ptr noundef null) #12
  tail call void @llvm.assume(i1 %51)
  %52 = tail call i32 @errcode(i32 noundef 1088) #11
  %53 = tail call ptr @LCS_asString(i32 noundef %1)
  %54 = tail call i32 (ptr, ...) @errmsg(ptr noundef nonnull @.str.25, ptr noundef nonnull %53) #11
  tail call void @errfinish(ptr noundef nonnull @.str.1, i32 noundef 3477, ptr noundef nonnull @__func__.CheckSelectLocking) #11
  unreachable

55:                                               ; preds = %46
  %56 = getelementptr inbounds nuw i8, ptr %0, i64 46
  %57 = load i8, ptr %56, align 2, !range !5, !noundef !4
  %58 = trunc nuw i8 %57 to i1
  br i1 %58, label %59, label %64

59:                                               ; preds = %55
  %60 = tail call zeroext i1 @errstart_cold(i32 noundef 21, ptr noundef null) #12
  tail call void @llvm.assume(i1 %60)
  %61 = tail call i32 @errcode(i32 noundef 1088) #11
  %62 = tail call ptr @LCS_asString(i32 noundef %1)
  %63 = tail call i32 (ptr, ...) @errmsg(ptr noundef nonnull @.str.26, ptr noundef nonnull %62) #11
  tail call void @errfinish(ptr noundef nonnull @.str.1, i32 noundef 3484, ptr noundef nonnull @__func__.CheckSelectLocking) #11
  unreachable

64:                                               ; preds = %55
  ret void
}